; Function Attrs: mustprogress nounwind uwtable
define void @_ZN3gmx18TextTableFormatterD2Ev(ptr noundef nonnull align 8 captures(none) dereferenceable(8) %0) unnamed_addr #6 align 2 personality ptr @__gxx_personality_v0 {
  %2 = load ptr, ptr %0, align 8, !tbaa !18
  %.not.i = icmp eq ptr %2, null
  br i1 %.not.i, label %_ZNSt10unique_ptrIN3gmx18TextTableFormatter4ImplESt14default_deleteIS2_EED2Ev.exit, label %_ZNKSt14default_deleteIN3gmx18TextTableFormatter4ImplEEclEPS2_.exit.i

_ZNKSt14default_deleteIN3gmx18TextTableFormatter4ImplEEclEPS2_.exit.i: ; preds = %1
  tail call void @_ZNSt6vectorIN3gmx18TextTableFormatter4Impl10ColumnDataESaIS3_EED2Ev(ptr noundef nonnull align 8 dereferenceable(34) %2) #22
  tail call void @_ZdlPvm(ptr noundef nonnull %2, i64 noundef 40) #21
  br label %_ZNSt10unique_ptrIN3gmx18TextTableFormatter4ImplESt14default_deleteIS2_EED2Ev.exit

_ZNSt10unique_ptrIN3gmx18TextTableFormatter4ImplESt14default_deleteIS2_EED2Ev.exit: ; preds = %1, %_ZNKSt14default_deleteIN3gmx18TextTableFormatter4ImplEEclEPS2_.exit.i
  store ptr null, ptr %0, align 8, !tbaa !18
  ret void
}